; Function Attrs: nounwind uwtable
define hidden range(i32 0, 2) i32 @_glfwConnectWayland(i32 noundef %0, ptr noundef writeonly captures(none) %1) local_unnamed_addr #0 {
  %3 = tail call ptr @_glfwPlatformLoadModule(ptr noundef nonnull @.str.43) #9
  %.not = icmp eq ptr %3, null
  br i1 %.not, label %4, label %7

4:                                                ; preds = %2
  %5 = icmp eq i32 %0, 393219
  br i1 %5, label %6, label %20

6:                                                ; preds = %4
  tail call void (i32, ptr, ...) @_glfwInputError(i32 noundef 65544, ptr noundef nonnull @.str.44) #9
  br label %20

7:                                                ; preds = %2
  %8 = tail call ptr @_glfwPlatformGetModuleSymbol(ptr noundef nonnull %3, ptr noundef nonnull @.str.45) #9
  %.not16 = icmp eq ptr %8, null
  br i1 %.not16, label %9, label %13

9:                                                ; preds = %7
  %10 = icmp eq i32 %0, 393219
  br i1 %10, label %11, label %12

11:                                               ; preds = %9
  tail call void (i32, ptr, ...) @_glfwInputError(i32 noundef 65544, ptr noundef nonnull @.str.46) #9
  br label %12

12:                                               ; preds = %11, %9
  tail call void @_glfwPlatformFreeModule(ptr noundef nonnull %3) #9
  br label %20

13:                                               ; preds = %7
  %14 = tail call ptr %8(ptr noundef null) #9
  %.not17 = icmp eq ptr %14, null
  br i1 %.not17, label %15, label %19

15:                                               ; preds = %13
  %16 = icmp eq i32 %0, 393219
  br i1 %16, label %17, label %18

17:                                               ; preds = %15
  tail call void (i32, ptr, ...) @_glfwInputError(i32 noundef 65544, ptr noundef nonnull @.str.47) #9
  br label %18

18:                                               ; preds = %17, %15
  tail call void @_glfwPlatformFreeModule(ptr noundef nonnull %3) #9
  br label %20

19:                                               ; preds = %13
  store ptr %14, ptr getelementptr inbounds nuw (i8, ptr @_glfw, i64 133888), align 8, !tbaa !3
  store ptr %3, ptr getelementptr inbounds nuw (i8, ptr @_glfw, i64 137376), align 8, !tbaa !93
  tail call void @llvm.memcpy.p0.p0.i64(ptr noundef nonnull align 8 dereferenceable(576) %1, ptr noundef nonnull align 8 dereferenceable(576) @__const._glfwConnectWayland.wayland, i64 576, i1 false), !tbaa.struct !94
  br label %20

20:                                               ; preds = %12, %19, %18, %4, %6
  %.0 = phi i32 [ 0, %6 ], [ 0, %4 ], [ 0, %12 ], [ 1, %19 ], [ 0, %18 ]
  ret i32 %.0
}